target datalayout = "e-m:e-p270:32:32-p271:32:32-p272:64:64-i64:64-i128:128-f80:128-n8:16:32:64-S128"
target triple = "x86_64-pc-linux-gnu"

%struct.pointf_s = type { double, double }
%struct.textlabel_t = type { ptr, ptr, ptr, i32, double, %struct.pointf_s, %struct.pointf_s, %struct.pointf_s, %union.anon, i8, i8, i8 }
%union.anon = type { %struct.anon }
%struct.anon = type { ptr, i64 }
%struct.boxf = type { %struct.pointf_s, %struct.pointf_s }
%struct.htmllabel_t = type { %union.anon.2, i32 }
%union.anon.2 = type { ptr }
%struct.htmldata_t = type { ptr, ptr, ptr, ptr, ptr, ptr, ptr, i32, i8, i8, i8, i8, i16, i16, i16, %struct.htmlstyle_t, %struct.boxf }
%struct.htmlstyle_t = type { i8 }
%struct.Agobj_s = type { %struct.Agtag_s, ptr }
%struct.Agtag_s = type { i32, i64 }
%struct.Agnodeinfo_t = type { %struct.Agrec_s, ptr, ptr, %struct.pointf_s, double, double, %struct.boxf, double, double, double, double, double, ptr, ptr, ptr, i8, i8, i8, i8, i32, i32, i32, ptr, double, i8, i8, ptr, ptr, i8, i64, i8, i8, i8, ptr, ptr, %struct.elist, %struct.elist, %struct.elist, %struct.elist, %struct.elist, ptr, i32, ptr, i32, i32, double, %struct.elist, %struct.elist, %struct.elist, %struct.elist, ptr, i32, i32, i32, [1 x double] }
%struct.Agrec_s = type { ptr, ptr }
%struct.elist = type { ptr, i64 }

; Function Attrs: nounwind uwtable
define ptr @html_port(ptr noundef %0, ptr noundef %1, ptr noundef %2) #0 {
  %4 = alloca ptr, align 8
  %5 = alloca ptr, align 8
  %6 = alloca ptr, align 8
  %7 = alloca ptr, align 8
  %8 = alloca ptr, align 8
  %9 = alloca ptr, align 8
  %10 = alloca ptr, align 8
  %11 = alloca i32, align 4
  store ptr %0, ptr %5, align 8, !tbaa !157
  store ptr %1, ptr %6, align 8, !tbaa !122
  store ptr %2, ptr %7, align 8, !tbaa !122
  call void @llvm.lifetime.start.p0(i64 8, ptr %8) #14
  call void @llvm.lifetime.start.p0(i64 8, ptr %9) #14
  %12 = load ptr, ptr %5, align 8, !tbaa !157
  %13 = getelementptr inbounds nuw %struct.Agobj_s, ptr %12, i32 0, i32 1
  %14 = load ptr, ptr %13, align 8, !tbaa !159
  %15 = getelementptr inbounds nuw %struct.Agnodeinfo_t, ptr %14, i32 0, i32 12
  %16 = load ptr, ptr %15, align 8, !tbaa !163
  %17 = getelementptr inbounds nuw %struct.textlabel_t, ptr %16, i32 0, i32 8
  %18 = load ptr, ptr %17, align 8, !tbaa !52
  store ptr %18, ptr %9, align 8, !tbaa !8
  call void @llvm.lifetime.start.p0(i64 8, ptr %10) #14
  store ptr null, ptr %10, align 8, !tbaa !103
  %19 = load ptr, ptr %9, align 8, !tbaa !8
  %20 = getelementptr inbounds nuw %struct.htmllabel_t, ptr %19, i32 0, i32 1
  %21 = load i32, ptr %20, align 8, !tbaa !62
  %22 = icmp eq i32 %21, 2
  br i1 %22, label %23, label %24

23:                                               ; preds = %3
  store ptr null, ptr %4, align 8
  store i32 1, ptr %11, align 4
  br label %41

24:                                               ; preds = %3
  %25 = load ptr, ptr %9, align 8, !tbaa !8
  %26 = getelementptr inbounds nuw %struct.htmllabel_t, ptr %25, i32 0, i32 0
  %27 = load ptr, ptr %26, align 8, !tbaa !52
  %28 = load ptr, ptr %6, align 8, !tbaa !122
  %29 = call ptr @portToTbl(ptr noundef %27, ptr noundef %28)
  store ptr %29, ptr %8, align 8, !tbaa !103
  %30 = load ptr, ptr %8, align 8, !tbaa !103
  %31 = icmp ne ptr %30, null
  br i1 %31, label %32, label %39

32:                                               ; preds = %24
  %33 = load ptr, ptr %8, align 8, !tbaa !103
  %34 = getelementptr inbounds nuw %struct.htmldata_t, ptr %33, i32 0, i32 16
  store ptr %34, ptr %10, align 8, !tbaa !103
  %35 = load ptr, ptr %8, align 8, !tbaa !103
  %36 = getelementptr inbounds nuw %struct.htmldata_t, ptr %35, i32 0, i32 11
  %37 = load i8, ptr %36, align 1, !tbaa !170
  %38 = load ptr, ptr %7, align 8, !tbaa !122
  store i8 %37, ptr %38, align 1, !tbaa !52
  br label %39

39:                                               ; preds = %32, %24
  %40 = load ptr, ptr %10, align 8, !tbaa !103
  store ptr %40, ptr %4, align 8
  store i32 1, ptr %11, align 4
  br label %41

41:                                               ; preds = %39, %23
  call void @llvm.lifetime.end.p0(i64 8, ptr %10) #14
  call void @llvm.lifetime.end.p0(i64 8, ptr %9) #14
  call void @llvm.lifetime.end.p0(i64 8, ptr %8) #14
  %42 = load ptr, ptr %4, align 8
  ret ptr %42
}