; Function Attrs: nofree nounwind memory(read, argmem: readwrite) uwtable
define ptr @html_port(ptr noundef readonly captures(none) %0, ptr noundef readonly captures(none) %1, ptr noundef writeonly captures(none) %2) local_unnamed_addr #6 {
  %4 = getelementptr inbounds nuw i8, ptr %0, i64 16
  %5 = load ptr, ptr %4, align 8, !tbaa !179
  %6 = getelementptr inbounds nuw i8, ptr %5, i64 136
  %7 = load ptr, ptr %6, align 8, !tbaa !183
  %8 = getelementptr inbounds nuw i8, ptr %7, i64 88
  %9 = load ptr, ptr %8, align 8, !tbaa !21
  %10 = getelementptr inbounds nuw i8, ptr %9, i64 8
  %11 = load i32, ptr %10, align 8, !tbaa !30
  %12 = icmp eq i32 %11, 2
  br i1 %12, label %20, label %13

13:                                               ; preds = %3
  %14 = load ptr, ptr %9, align 8, !tbaa !21
  %15 = tail call fastcc ptr @portToTbl(ptr noundef %14, ptr noundef %1)
  %.not = icmp eq ptr %15, null
  br i1 %.not, label %20, label %16

16:                                               ; preds = %13
  %17 = getelementptr inbounds nuw i8, ptr %15, i64 72
  %18 = getelementptr inbounds nuw i8, ptr %15, i64 63
  %19 = load i8, ptr %18, align 1, !tbaa !192
  store i8 %19, ptr %2, align 1, !tbaa !21
  br label %20

20:                                               ; preds = %13, %16, %3
  %.010 = phi ptr [ null, %3 ], [ %17, %16 ], [ null, %13 ]
  ret ptr %.010
}